target datalayout = "e-m:e-p270:32:32-p271:32:32-p272:64:64-i64:64-i128:128-f80:128-n8:16:32:64-S128"
target triple = "x86_64-pc-linux-gnu"

%struct.pcapng_option_header = type { i16, i16 }

; Function Attrs: nounwind uwtable
define internal i32 @pcapng_write_string_option(ptr noundef %0, i32 noundef %1, ptr noundef %2, ptr noundef %3) #0 {
  %5 = alloca i32, align 4
  %6 = alloca ptr, align 8
  %7 = alloca i32, align 4
  %8 = alloca ptr, align 8
  %9 = alloca ptr, align 8
  %10 = alloca %struct.pcapng_option_header, align 2
  %11 = alloca i64, align 8
  %12 = alloca i32, align 4
  %13 = alloca i32, align 4
  store ptr %0, ptr %6, align 8
  store i32 %1, ptr %7, align 4
  store ptr %2, ptr %8, align 8
  store ptr %3, ptr %9, align 8
  %14 = load ptr, ptr %8, align 8
  %15 = load ptr, ptr %14, align 8
  %16 = call i64 @strlen(ptr noundef %15) #12
  store i64 %16, ptr %11, align 8
  store i32 0, ptr %12, align 4
  %17 = load i64, ptr %11, align 8
  %18 = icmp eq i64 %17, 0
  br i1 %18, label %19, label %20

19:                                               ; preds = %4
  store i32 1, ptr %5, align 4
  br label %68

20:                                               ; preds = %4
  %21 = load i64, ptr %11, align 8
  %22 = icmp ugt i64 %21, 65535
  br i1 %22, label %23, label %24

23:                                               ; preds = %20
  store i32 1, ptr %5, align 4
  br label %68

24:                                               ; preds = %20
  %25 = load i32, ptr %7, align 4
  %26 = trunc i32 %25 to i16
  %27 = getelementptr inbounds %struct.pcapng_option_header, ptr %10, i32 0, i32 0
  store i16 %26, ptr %27, align 2
  %28 = load i64, ptr %11, align 8
  %29 = trunc i64 %28 to i16
  %30 = getelementptr inbounds %struct.pcapng_option_header, ptr %10, i32 0, i32 1
  store i16 %29, ptr %30, align 2
  %31 = load ptr, ptr %6, align 8
  %32 = load ptr, ptr %9, align 8
  %33 = call i32 @wtap_dump_file_write(ptr noundef %31, ptr noundef %10, i64 noundef 4, ptr noundef %32)
  %34 = icmp ne i32 %33, 0
  br i1 %34, label %36, label %35

35:                                               ; preds = %24
  store i32 0, ptr %5, align 4
  br label %68

36:                                               ; preds = %24
  %37 = load ptr, ptr %6, align 8
  %38 = load ptr, ptr %8, align 8
  %39 = load ptr, ptr %38, align 8
  %40 = load i64, ptr %11, align 8
  %41 = load ptr, ptr %9, align 8
  %42 = call i32 @wtap_dump_file_write(ptr noundef %37, ptr noundef %39, i64 noundef %40, ptr noundef %41)
  %43 = icmp ne i32 %42, 0
  br i1 %43, label %45, label %44

44:                                               ; preds = %36
  store i32 0, ptr %5, align 4
  br label %68

45:                                               ; preds = %36
  %46 = load i64, ptr %11, align 8
  %47 = urem i64 %46, 4
  %48 = icmp ne i64 %47, 0
  br i1 %48, label %49, label %54

49:                                               ; preds = %45
  %50 = load i64, ptr %11, align 8
  %51 = urem i64 %50, 4
  %52 = sub i64 4, %51
  %53 = trunc i64 %52 to i32
  store i32 %53, ptr %13, align 4
  br label %55

54:                                               ; preds = %45
  store i32 0, ptr %13, align 4
  br label %55

55:                                               ; preds = %54, %49
  %56 = load i32, ptr %13, align 4
  %57 = icmp ne i32 %56, 0
  br i1 %57, label %58, label %67

58:                                               ; preds = %55
  %59 = load ptr, ptr %6, align 8
  %60 = load i32, ptr %13, align 4
  %61 = zext i32 %60 to i64
  %62 = load ptr, ptr %9, align 8
  %63 = call i32 @wtap_dump_file_write(ptr noundef %59, ptr noundef %12, i64 noundef %61, ptr noundef %62)
  %64 = icmp ne i32 %63, 0
  br i1 %64, label %66, label %65

65:                                               ; preds = %58
  store i32 0, ptr %5, align 4
  br label %68

66:                                               ; preds = %58
  br label %67

67:                                               ; preds = %66, %55
  store i32 1, ptr %5, align 4
  br label %68

68:                                               ; preds = %67, %65, %44, %35, %23, %19
  %69 = load i32, ptr %5, align 4
  ret i32 %69
}

; Function Attrs: nounwind uwtable
define internal i32 @write_wtap_shb_option(ptr noundef %0, ptr noundef %1, i32 noundef %2, i32 noundef %3, ptr noundef %4, ptr noundef %5) #0 {
  %7 = alloca i32, align 4
  %8 = alloca ptr, align 8
  %9 = alloca ptr, align 8
  %10 = alloca i32, align 4
  %11 = alloca i32, align 4
  %12 = alloca ptr, align 8
  %13 = alloca ptr, align 8
  store ptr %0, ptr %8, align 8
  store ptr %1, ptr %9, align 8
  store i32 %2, ptr %10, align 4
  store i32 %3, ptr %11, align 4
  store ptr %4, ptr %12, align 8
  store ptr %5, ptr %13, align 8
  %14 = load i32, ptr %10, align 4
  switch i32 %14, label %24 [
    i32 2, label %15
    i32 3, label %15
    i32 4, label %15
  ]

15:                                               ; preds = %6, %6, %6
  %16 = load ptr, ptr %8, align 8
  %17 = load i32, ptr %10, align 4
  %18 = load ptr, ptr %12, align 8
  %19 = load ptr, ptr %13, align 8
  %20 = call i32 @pcapng_write_string_option(ptr noundef %16, i32 noundef %17, ptr noundef %18, ptr noundef %19)
  %21 = icmp ne i32 %20, 0
  br i1 %21, label %23, label %22

22:                                               ; preds = %15
  store i32 0, ptr %7, align 4
  br label %26

23:                                               ; preds = %15
  br label %25

24:                                               ; preds = %6
  br label %25

25:                                               ; preds = %24, %23
  store i32 1, ptr %7, align 4
  br label %26

26:                                               ; preds = %25, %22
  %27 = load i32, ptr %7, align 4
  ret i32 %27
}