; Function Attrs: nounwind uwtable
define internal range(i32 0, 2) i32 @write_wtap_shb_option(ptr noundef %0, ptr readnone captures(none) %1, i32 noundef %2, i32 %3, ptr noundef readonly captures(none) %4, ptr noundef %5) #0 {
  %7 = alloca %struct.pcapng_option_header, align 2
  %8 = alloca i32, align 4
  %.off = add i32 %2, -2
  %switch = icmp ult i32 %.off, 3
  br i1 %switch, label %9, label %26

9:                                                ; preds = %6
  call void @llvm.lifetime.start.p0(i64 4, ptr nonnull %7)
  call void @llvm.lifetime.start.p0(i64 4, ptr nonnull %8)
  %10 = load ptr, ptr %4, align 8
  %11 = tail call i64 @strlen(ptr noundef nonnull dereferenceable(1) %10) #19
  store i32 0, ptr %8, align 4
  %12 = add i64 %11, -65536
  %or.cond.i = icmp ult i64 %12, -65535
  br i1 %or.cond.i, label %pcapng_write_string_option.exit, label %13

13:                                               ; preds = %9
  %14 = trunc nuw i32 %2 to i16
  store i16 %14, ptr %7, align 2
  %15 = trunc nuw i64 %11 to i16
  %16 = getelementptr inbounds nuw i8, ptr %7, i64 2
  store i16 %15, ptr %16, align 2
  %17 = call i32 @wtap_dump_file_write(ptr noundef %0, ptr noundef nonnull %7, i64 noundef 4, ptr noundef %5) #16
  %.not.i = icmp eq i32 %17, 0
  br i1 %.not.i, label %.sink.split, label %18

18:                                               ; preds = %13
  %19 = load ptr, ptr %4, align 8
  %20 = call i32 @wtap_dump_file_write(ptr noundef %0, ptr noundef %19, i64 noundef %11, ptr noundef %5) #16
  %.not20.i = icmp eq i32 %20, 0
  br i1 %.not20.i, label %.sink.split, label %21

21:                                               ; preds = %18
  %22 = and i64 %11, 3
  %.not21.i = icmp eq i64 %22, 0
  br i1 %.not21.i, label %pcapng_write_string_option.exit, label %23

23:                                               ; preds = %21
  %24 = sub nuw nsw i64 4, %22
  %25 = call i32 @wtap_dump_file_write(ptr noundef %0, ptr noundef nonnull %8, i64 noundef %24, ptr noundef %5) #16
  %.not23.i = icmp eq i32 %25, 0
  br i1 %.not23.i, label %.sink.split, label %pcapng_write_string_option.exit

pcapng_write_string_option.exit:                  ; preds = %21, %23, %9
  br label %.sink.split

.sink.split:                                      ; preds = %23, %18, %13, %pcapng_write_string_option.exit
  %.0.ph = phi i32 [ 1, %pcapng_write_string_option.exit ], [ 0, %13 ], [ 0, %18 ], [ 0, %23 ]
  call void @llvm.lifetime.end.p0(i64 4, ptr nonnull %7)
  call void @llvm.lifetime.end.p0(i64 4, ptr nonnull %8)
  br label %26

26:                                               ; preds = %.sink.split, %6
  %.0 = phi i32 [ 1, %6 ], [ %.0.ph, %.sink.split ]
  ret i32 %.0
}